target datalayout = "e-m:e-p270:32:32-p271:32:32-p272:64:64-i64:64-i128:128-f80:128-n8:16:32:64-S128"
target triple = "x86_64-pc-linux-gnu"

@_ZN12_GLOBAL__N_112nounClassIdsE = internal global [9 x ptr] [ptr @.str, ptr @.str.20, ptr @.str.21, ptr @.str.22, ptr @.str.23, ptr @.str.24, ptr @.str.25, ptr @.str.26, ptr @.str.27], align 16

; Function Attrs: mustprogress nounwind uwtable
define ptr @udispopt_getNounClassIdentifier_77(i32 noundef %0) #1 {
  %2 = alloca ptr, align 8
  %3 = alloca i32, align 4
  store i32 %0, ptr %3, align 4, !tbaa !42
  %4 = load i32, ptr %3, align 4, !tbaa !42
  %5 = icmp sge i32 %4, 0
  br i1 %5, label %6, label %14

6:                                                ; preds = %1
  %7 = load i32, ptr %3, align 4, !tbaa !42
  %8 = icmp slt i32 %7, 9
  br i1 %8, label %9, label %14

9:                                                ; preds = %6
  %10 = load i32, ptr %3, align 4, !tbaa !42
  %11 = zext i32 %10 to i64
  %12 = getelementptr inbounds nuw [9 x ptr], ptr @_ZN12_GLOBAL__N_112nounClassIdsE, i64 0, i64 %11
  %13 = load ptr, ptr %12, align 8, !tbaa !34
  store ptr %13, ptr %2, align 8
  br label %16

14:                                               ; preds = %6, %1
  %15 = load ptr, ptr @_ZN12_GLOBAL__N_112nounClassIdsE, align 16, !tbaa !34
  store ptr %15, ptr %2, align 8
  br label %16

16:                                               ; preds = %14, %9
  %17 = load ptr, ptr %2, align 8
  ret ptr %17
}